ccopy_reg
_reconstructor
p0
(cgoogle.oauth2.credentials
Credentials
p1
c__builtin__
object
p2
Ntp3
Rp4
(dp5
S'_token_uri'
p6
Vhttps://oauth2.googleapis.com/token
p7
sS'_client_secret'
p8
VjzuhFh-lxOhCAGbzzKbJEzh3
p9
sS'_id_token'
p10
NsS'token'
p11
Vya29.a0Ae4lvC3Hc5Qp0xdTlt5msLcy1E_FaR0qwJg8c_L2qMEUE-e_2i3gVadR-LsNBzfr7SS65_HYSLN--JDRl6Fy-DF8zXCi0Y9MhDQjKxb-E7qwWH0WbL-jEG4bx4OABKW5nVPKC5OE6Hdt4qim3eaT3Lw6KUzYv3bx0Fw
p12
sS'_refresh_token'
p13
V1//06hWR0w9YRKc7CgYIARAAGAYSNwF-L9IrctamVFG0moFjA9aMszcjio0lEmjPQvPcaMXk1JyTmOZ4bu6eennMlN3KZL8sgpUfzvQ
p14
sS'_scopes'
p15
(lp16
S'https://www.googleapis.com/auth/gmail.readonly'
p17
asS'_client_id'
p18
V545649267288-6v337ms2u0o681hmj9mbrf3dh17p1c7q.apps.googleusercontent.com
p19
sS'expiry'
p20
cdatetime
datetime
p21
(S'\x07\xe4\x04\r\x12&!\n5d'
p22
tp23
Rp24
sb.